target datalayout = "e-m:e-p270:32:32-p271:32:32-p272:64:64-i64:64-i128:128-f80:128-n8:16:32:64-S128"
target triple = "x86_64-pc-linux-gnu"

%struct._fileset = type { ptr, ptr }
%struct.stat = type { i64, i64, i64, i32, i32, i32, i32, i64, i64, i64, i64, %struct.timespec, %struct.timespec, %struct.timespec, [3 x i64] }
%struct.timespec = type { i64, i64 }
%struct._fileset_entry = type { ptr, ptr, i64, i64, i64, i32 }

@set = internal global %struct._fileset zeroinitializer, align 8
@.str.7 = private unnamed_addr constant [5 x i8] c"%s%s\00", align 1

; Function Attrs: nounwind uwtable
define internal ptr @fileset_add_file(ptr noundef %0, ptr noundef %1, i32 noundef %2) #0 {
  %4 = alloca ptr, align 8
  %5 = alloca ptr, align 8
  %6 = alloca i32, align 4
  %7 = alloca i32, align 4
  %8 = alloca i32, align 4
  %9 = alloca %struct.stat, align 8
  %10 = alloca ptr, align 8
  %11 = alloca ptr, align 8
  store ptr %0, ptr %4, align 8
  store ptr %1, ptr %5, align 8
  store i32 %2, ptr %6, align 4
  store ptr null, ptr %11, align 8
  %12 = load ptr, ptr %4, align 8
  %13 = load ptr, ptr %5, align 8
  %14 = call noalias ptr (ptr, ptr, ...) @wmem_strdup_printf(ptr noundef null, ptr noundef @.str.7, ptr noundef %12, ptr noundef %13)
  store ptr %14, ptr %10, align 8
  %15 = load ptr, ptr %10, align 8
  %16 = call i32 (ptr, i32, ...) @open(ptr noundef %15, i32 noundef 0, i32 noundef 0)
  store i32 %16, ptr %7, align 4
  %17 = load i32, ptr %7, align 4
  %18 = icmp ne i32 %17, -1
  br i1 %18, label %19, label %54

19:                                               ; preds = %3
  %20 = load i32, ptr %7, align 4
  %21 = call i32 @fstat(i32 noundef %20, ptr noundef %9) #6
  store i32 %21, ptr %8, align 4
  %22 = load i32, ptr %8, align 4
  %23 = icmp eq i32 %22, 0
  br i1 %23, label %24, label %51

24:                                               ; preds = %19
  %25 = call noalias ptr @g_malloc_n(i64 noundef 1, i64 noundef 48) #7
  store ptr %25, ptr %11, align 8
  %26 = load ptr, ptr %10, align 8
  %27 = call noalias ptr @g_strdup(ptr noundef %26)
  %28 = load ptr, ptr %11, align 8
  %29 = getelementptr inbounds %struct._fileset_entry, ptr %28, i32 0, i32 0
  store ptr %27, ptr %29, align 8
  %30 = load ptr, ptr %5, align 8
  %31 = call noalias ptr @g_strdup(ptr noundef %30)
  %32 = load ptr, ptr %11, align 8
  %33 = getelementptr inbounds %struct._fileset_entry, ptr %32, i32 0, i32 1
  store ptr %31, ptr %33, align 8
  %34 = load ptr, ptr %11, align 8
  %35 = getelementptr inbounds %struct._fileset_entry, ptr %34, i32 0, i32 2
  store i64 0, ptr %35, align 8
  %36 = getelementptr inbounds %struct.stat, ptr %9, i32 0, i32 12
  %37 = getelementptr inbounds %struct.timespec, ptr %36, i32 0, i32 0
  %38 = load i64, ptr %37, align 8
  %39 = load ptr, ptr %11, align 8
  %40 = getelementptr inbounds %struct._fileset_entry, ptr %39, i32 0, i32 3
  store i64 %38, ptr %40, align 8
  %41 = getelementptr inbounds %struct.stat, ptr %9, i32 0, i32 8
  %42 = load i64, ptr %41, align 8
  %43 = load ptr, ptr %11, align 8
  %44 = getelementptr inbounds %struct._fileset_entry, ptr %43, i32 0, i32 4
  store i64 %42, ptr %44, align 8
  %45 = load i32, ptr %6, align 4
  %46 = load ptr, ptr %11, align 8
  %47 = getelementptr inbounds %struct._fileset_entry, ptr %46, i32 0, i32 5
  store i32 %45, ptr %47, align 8
  %48 = load ptr, ptr @set, align 8
  %49 = load ptr, ptr %11, align 8
  %50 = call ptr @g_list_append(ptr noundef %48, ptr noundef %49)
  store ptr %50, ptr @set, align 8
  br label %51

51:                                               ; preds = %24, %19
  %52 = load i32, ptr %7, align 4
  %53 = call i32 @close(i32 noundef %52)
  br label %54

54:                                               ; preds = %51, %3
  %55 = load ptr, ptr %10, align 8
  call void @g_free(ptr noundef %55)
  %56 = load ptr, ptr %11, align 8
  ret ptr %56
}