; Function Attrs: nounwind uwtable
define internal fastcc void @fileset_add_file(ptr noundef %0, ptr noundef %1, i32 noundef range(i32 0, 2) %2) unnamed_addr #0 {
  %4 = alloca %struct.stat, align 8
  %5 = tail call noalias ptr (ptr, ptr, ...) @wmem_strdup_printf(ptr noundef null, ptr noundef nonnull @.str.7, ptr noundef %0, ptr noundef %1) #9
  %6 = tail call i32 (ptr, i32, ...) @open(ptr noundef %5, i32 noundef 0, i32 noundef 0) #9
  %.not = icmp eq i32 %6, -1
  br i1 %.not, label %27, label %7

7:                                                ; preds = %3
  %8 = call i32 @fstat(i32 noundef %6, ptr noundef nonnull %4) #9
  %9 = icmp eq i32 %8, 0
  br i1 %9, label %10, label %25

10:                                               ; preds = %7
  %11 = tail call noalias dereferenceable_or_null(48) ptr @g_malloc_n(i64 noundef 1, i64 noundef 48) #11
  %12 = tail call noalias ptr @g_strdup(ptr noundef %5) #9
  store ptr %12, ptr %11, align 8
  %13 = tail call noalias ptr @g_strdup(ptr noundef %1) #9
  %14 = getelementptr inbounds nuw i8, ptr %11, i64 8
  store ptr %13, ptr %14, align 8
  %15 = getelementptr inbounds nuw i8, ptr %11, i64 16
  store i64 0, ptr %15, align 8
  %16 = getelementptr inbounds nuw i8, ptr %4, i64 88
  %17 = load i64, ptr %16, align 8
  %18 = getelementptr inbounds nuw i8, ptr %11, i64 24
  store i64 %17, ptr %18, align 8
  %19 = getelementptr inbounds nuw i8, ptr %4, i64 48
  %20 = load i64, ptr %19, align 8
  %21 = getelementptr inbounds nuw i8, ptr %11, i64 32
  store i64 %20, ptr %21, align 8
  %22 = getelementptr inbounds nuw i8, ptr %11, i64 40
  store i32 %2, ptr %22, align 8
  %23 = load ptr, ptr @set.0, align 8
  %24 = tail call ptr @g_list_append(ptr noundef %23, ptr noundef nonnull %11) #9
  store ptr %24, ptr @set.0, align 8
  br label %25

25:                                               ; preds = %10, %7
  %26 = tail call i32 @close(i32 noundef %6) #9
  br label %27

27:                                               ; preds = %25, %3
  tail call void @g_free(ptr noundef %5) #9
  ret void
}